; Function Attrs: mustprogress uwtable
define void @_ZN7rocksdb6HeaderEPNS_6LoggerEPKcz(ptr noundef %0, ptr noundef %1, ...) local_unnamed_addr #4 {
  %3 = alloca [1 x %struct.__va_list_tag], align 16
  call void @llvm.lifetime.start.p0(i64 24, ptr nonnull %3) #37
  call void @llvm.va_start.p0(ptr nonnull %3)
  %.not.i = icmp eq ptr %0, null
  br i1 %.not.i, label %_ZN7rocksdbL7HeadervEPNS_6LoggerEPKcP13__va_list_tag.exit, label %4

4:                                                ; preds = %2
  %5 = load ptr, ptr %0, align 8, !tbaa !18
  %6 = getelementptr inbounds nuw i8, ptr %5, i64 24
  %7 = load ptr, ptr %6, align 8
  call void %7(ptr noundef nonnull align 8 dereferenceable(10) %0, ptr noundef %1, ptr noundef nonnull %3)
  br label %_ZN7rocksdbL7HeadervEPNS_6LoggerEPKcP13__va_list_tag.exit

_ZN7rocksdbL7HeadervEPNS_6LoggerEPKcP13__va_list_tag.exit: ; preds = %2, %4
  call void @llvm.va_end.p0(ptr nonnull %3)
  call void @llvm.lifetime.end.p0(i64 24, ptr nonnull %3) #37
  ret void
}